; Function Attrs: nounwind uwtable
define ptr @l_ImportCompletion_computePartialImportCompletions___lambda__3(ptr noundef %0, ptr noundef %1, ptr noundef %2, ptr readnone captures(none) %3) local_unnamed_addr #0 {
  %5 = tail call ptr @l_Lean_Syntax_getArg(ptr noundef %0, ptr noundef nonnull inttoptr (i64 3 to ptr)) #5
  %6 = tail call zeroext i8 @l_Lean_Syntax_isNone(ptr noundef %5) #5
  %7 = icmp eq i8 %6, 0
  %8 = ptrtoint ptr %5 to i64
  %9 = and i64 %8, 1
  %.not44 = icmp eq i64 %9, 0
  br i1 %7, label %10, label %64

10:                                               ; preds = %4
  br i1 %.not44, label %11, label %lean_inc.exit.thread

11:                                               ; preds = %10
  %.val.i = load i32, ptr %5, align 4, !tbaa !8
  %12 = icmp sgt i32 %.val.i, 0
  br i1 %12, label %13, label %15, !prof !11

13:                                               ; preds = %11
  %14 = add nuw i32 %.val.i, 1
  store i32 %14, ptr %5, align 4, !tbaa !8
  br label %lean_inc.exit

15:                                               ; preds = %11
  %.not.i42 = icmp eq i32 %.val.i, 0
  br i1 %.not.i42, label %lean_inc.exit, label %16

16:                                               ; preds = %15
  tail call void @lean_inc_ref_cold(ptr noundef nonnull %5) #5
  br label %lean_inc.exit

lean_inc.exit:                                    ; preds = %16, %15, %13
  %17 = tail call zeroext i8 @l_Lean_Syntax_matchesNull(ptr noundef nonnull %5, ptr noundef nonnull inttoptr (i64 3 to ptr)) #5
  %18 = icmp eq i8 %17, 0
  br i1 %18, label %22, label %39

lean_inc.exit.thread:                             ; preds = %10
  %19 = tail call zeroext i8 @l_Lean_Syntax_matchesNull(ptr noundef %5, ptr noundef nonnull inttoptr (i64 3 to ptr)) #5
  %20 = icmp eq i8 %19, 0
  br i1 %20, label %lean_dec.exit33, label %.thread43

.thread43:                                        ; preds = %lean_inc.exit.thread
  %21 = tail call ptr @l_Lean_Syntax_getArg(ptr noundef %5, ptr noundef nonnull inttoptr (i64 1 to ptr)) #5
  br label %lean_dec.exit31

22:                                               ; preds = %lean_inc.exit
  %23 = load i32, ptr %5, align 4, !tbaa !8
  %24 = icmp sgt i32 %23, 1
  br i1 %24, label %25, label %27, !prof !11

25:                                               ; preds = %22
  %26 = add nsw i32 %23, -1
  store i32 %26, ptr %5, align 4, !tbaa !8
  br label %lean_dec.exit33

27:                                               ; preds = %22
  %.not.i = icmp eq i32 %23, 0
  br i1 %.not.i, label %lean_dec.exit33, label %28

28:                                               ; preds = %27
  tail call void @lean_dec_ref_cold(ptr noundef nonnull %5) #5
  br label %lean_dec.exit33

lean_dec.exit33:                                  ; preds = %lean_inc.exit.thread, %28, %27, %25
  %29 = ptrtoint ptr %2 to i64
  %30 = and i64 %29, 1
  %.not46 = icmp eq i64 %30, 0
  br i1 %.not46, label %31, label %lean_dec.exit32

31:                                               ; preds = %lean_dec.exit33
  %32 = load i32, ptr %2, align 4, !tbaa !8
  %33 = icmp sgt i32 %32, 1
  br i1 %33, label %34, label %36, !prof !11

34:                                               ; preds = %31
  %35 = add nsw i32 %32, -1
  store i32 %35, ptr %2, align 4, !tbaa !8
  br label %lean_dec.exit32

36:                                               ; preds = %31
  %.not.i34 = icmp eq i32 %32, 0
  br i1 %.not.i34, label %lean_dec.exit32, label %37

37:                                               ; preds = %36
  tail call void @lean_dec_ref_cold(ptr noundef nonnull %2) #5
  br label %lean_dec.exit32

lean_dec.exit32:                                  ; preds = %37, %36, %34, %lean_dec.exit33
  %38 = load ptr, ptr @l_ImportCompletion_computePartialImportCompletions___lambda__2___closed__1, align 8, !tbaa !4
  br label %73

39:                                               ; preds = %lean_inc.exit
  %40 = tail call ptr @l_Lean_Syntax_getArg(ptr noundef nonnull %5, ptr noundef nonnull inttoptr (i64 1 to ptr)) #5
  %41 = load i32, ptr %5, align 4, !tbaa !8
  %42 = icmp sgt i32 %41, 1
  br i1 %42, label %43, label %45, !prof !11

43:                                               ; preds = %39
  %44 = add nsw i32 %41, -1
  store i32 %44, ptr %5, align 4, !tbaa !8
  br label %lean_dec.exit31

45:                                               ; preds = %39
  %.not.i36 = icmp eq i32 %41, 0
  br i1 %.not.i36, label %lean_dec.exit31, label %46

46:                                               ; preds = %45
  tail call void @lean_dec_ref_cold(ptr noundef nonnull %5) #5
  br label %lean_dec.exit31

lean_dec.exit31:                                  ; preds = %46, %45, %43, %.thread43
  %47 = phi ptr [ %21, %.thread43 ], [ %40, %43 ], [ %40, %45 ], [ %40, %46 ]
  %48 = load ptr, ptr @l_ImportCompletion_isImportNameCompletionRequest___lambda__2___closed__5, align 8, !tbaa !4
  %49 = tail call zeroext i8 @l_Lean_Syntax_isOfKind(ptr noundef %47, ptr noundef %48) #5
  %50 = icmp eq i8 %49, 0
  br i1 %50, label %51, label %62

51:                                               ; preds = %lean_dec.exit31
  %52 = ptrtoint ptr %2 to i64
  %53 = and i64 %52, 1
  %.not45 = icmp eq i64 %53, 0
  br i1 %.not45, label %54, label %lean_dec.exit30

54:                                               ; preds = %51
  %55 = load i32, ptr %2, align 4, !tbaa !8
  %56 = icmp sgt i32 %55, 1
  br i1 %56, label %57, label %59, !prof !11

57:                                               ; preds = %54
  %58 = add nsw i32 %55, -1
  store i32 %58, ptr %2, align 4, !tbaa !8
  br label %lean_dec.exit30

59:                                               ; preds = %54
  %.not.i38 = icmp eq i32 %55, 0
  br i1 %.not.i38, label %lean_dec.exit30, label %60

60:                                               ; preds = %59
  tail call void @lean_dec_ref_cold(ptr noundef nonnull %2) #5
  br label %lean_dec.exit30

lean_dec.exit30:                                  ; preds = %60, %59, %57, %51
  %61 = load ptr, ptr @l_ImportCompletion_computePartialImportCompletions___lambda__2___closed__1, align 8, !tbaa !4
  br label %73

62:                                               ; preds = %lean_dec.exit31
  %63 = tail call ptr @l_ImportCompletion_computePartialImportCompletions___lambda__2(ptr noundef %0, ptr noundef %1, ptr noundef %2, ptr nonnull poison)
  br label %73

64:                                               ; preds = %4
  br i1 %.not44, label %65, label %lean_dec.exit

65:                                               ; preds = %64
  %66 = load i32, ptr %5, align 4, !tbaa !8
  %67 = icmp sgt i32 %66, 1
  br i1 %67, label %68, label %70, !prof !11

68:                                               ; preds = %65
  %69 = add nsw i32 %66, -1
  store i32 %69, ptr %5, align 4, !tbaa !8
  br label %lean_dec.exit

70:                                               ; preds = %65
  %.not.i40 = icmp eq i32 %66, 0
  br i1 %.not.i40, label %lean_dec.exit, label %71

71:                                               ; preds = %70
  tail call void @lean_dec_ref_cold(ptr noundef nonnull %5) #5
  br label %lean_dec.exit

lean_dec.exit:                                    ; preds = %71, %70, %68, %64
  %72 = tail call ptr @l_ImportCompletion_computePartialImportCompletions___lambda__2(ptr noundef %0, ptr noundef %1, ptr noundef %2, ptr nonnull poison)
  br label %73

73:                                               ; preds = %lean_dec.exit32, %62, %lean_dec.exit30, %lean_dec.exit
  %.2 = phi ptr [ %72, %lean_dec.exit ], [ %38, %lean_dec.exit32 ], [ %61, %lean_dec.exit30 ], [ %63, %62 ]
  ret ptr %.2
}